target datalayout = "e-m:e-p270:32:32-p271:32:32-p272:64:64-i64:64-i128:128-f80:128-n8:16:32:64-S128"
target triple = "x86_64-pc-linux-gnu"

%struct.uv_buf_t = type { ptr, i64 }
%struct.uv_fs_s = type { ptr, i32, [6 x ptr], i32, ptr, ptr, i64, ptr, ptr, %struct.uv_stat_t, ptr, i32, i32, i32, i32, ptr, i64, i32, i32, double, double, %struct.uv__work, [4 x %struct.uv_buf_t] }
%struct.uv_stat_t = type { i64, i64, i64, i64, i64, i64, i64, i64, i64, i64, i64, i64, %struct.uv_timespec_t, %struct.uv_timespec_t, %struct.uv_timespec_t, %struct.uv_timespec_t }
%struct.uv_timespec_t = type { i64, i64 }
%struct.uv__work = type { ptr, ptr, ptr, [2 x ptr] }
%struct.dirent = type { i64, i64, i16, i8, [256 x i8] }
%struct.uv_dirent_s = type { ptr, i32 }

; Function Attrs: nounwind uwtable
define dso_local i32 @uv__fs_get_dirent_type(ptr noundef %0) #0 {
  %2 = alloca ptr, align 8
  %3 = alloca i32, align 4
  store ptr %0, ptr %2, align 8, !tbaa !104
  call void @llvm.lifetime.start.p0(i64 4, ptr %3) #13
  %4 = load ptr, ptr %2, align 8, !tbaa !104
  %5 = getelementptr inbounds nuw %struct.dirent, ptr %4, i32 0, i32 3
  %6 = load i8, ptr %5, align 2, !tbaa !112
  %7 = zext i8 %6 to i32
  switch i32 %7, label %15 [
    i32 4, label %8
    i32 8, label %9
    i32 10, label %10
    i32 1, label %11
    i32 12, label %12
    i32 2, label %13
    i32 6, label %14
  ]

8:                                                ; preds = %1
  store i32 2, ptr %3, align 4, !tbaa !15
  br label %16

9:                                                ; preds = %1
  store i32 1, ptr %3, align 4, !tbaa !15
  br label %16

10:                                               ; preds = %1
  store i32 3, ptr %3, align 4, !tbaa !15
  br label %16

11:                                               ; preds = %1
  store i32 4, ptr %3, align 4, !tbaa !15
  br label %16

12:                                               ; preds = %1
  store i32 5, ptr %3, align 4, !tbaa !15
  br label %16

13:                                               ; preds = %1
  store i32 6, ptr %3, align 4, !tbaa !15
  br label %16

14:                                               ; preds = %1
  store i32 7, ptr %3, align 4, !tbaa !15
  br label %16

15:                                               ; preds = %1
  store i32 0, ptr %3, align 4, !tbaa !15
  br label %16

16:                                               ; preds = %15, %14, %13, %12, %11, %10, %9, %8
  %17 = load i32, ptr %3, align 4, !tbaa !15
  call void @llvm.lifetime.end.p0(i64 4, ptr %3) #13
  ret i32 %17
}

; Function Attrs: nounwind uwtable
define internal ptr @uv__get_nbufs(ptr noundef %0) #0 {
  %2 = alloca ptr, align 8
  store ptr %0, ptr %2, align 8, !tbaa !93
  %3 = load ptr, ptr %2, align 8, !tbaa !93
  %4 = getelementptr inbounds nuw %struct.uv_fs_s, ptr %3, i32 0, i32 14
  ret ptr %4
}

; Function Attrs: nounwind uwtable
define dso_local i32 @uv_fs_scandir_next(ptr noundef %0, ptr noundef %1) #0 {
  %3 = alloca i32, align 4
  %4 = alloca ptr, align 8
  %5 = alloca ptr, align 8
  %6 = alloca ptr, align 8
  %7 = alloca ptr, align 8
  %8 = alloca ptr, align 8
  %9 = alloca i32, align 4
  store ptr %0, ptr %4, align 8, !tbaa !93
  store ptr %1, ptr %5, align 8, !tbaa !107
  call void @llvm.lifetime.start.p0(i64 8, ptr %6) #13
  call void @llvm.lifetime.start.p0(i64 8, ptr %7) #13
  call void @llvm.lifetime.start.p0(i64 8, ptr %8) #13
  %10 = load ptr, ptr %4, align 8, !tbaa !93
  %11 = getelementptr inbounds nuw %struct.uv_fs_s, ptr %10, i32 0, i32 6
  %12 = load i64, ptr %11, align 8, !tbaa !103
  %13 = icmp slt i64 %12, 0
  br i1 %13, label %14, label %19

14:                                               ; preds = %2
  %15 = load ptr, ptr %4, align 8, !tbaa !93
  %16 = getelementptr inbounds nuw %struct.uv_fs_s, ptr %15, i32 0, i32 6
  %17 = load i64, ptr %16, align 8, !tbaa !103
  %18 = trunc i64 %17 to i32
  store i32 %18, ptr %3, align 4
  store i32 1, ptr %9, align 4
  br label %71

19:                                               ; preds = %2
  %20 = load ptr, ptr %4, align 8, !tbaa !93
  %21 = getelementptr inbounds nuw %struct.uv_fs_s, ptr %20, i32 0, i32 7
  %22 = load ptr, ptr %21, align 8, !tbaa !95
  %23 = icmp ne ptr %22, null
  br i1 %23, label %25, label %24

24:                                               ; preds = %19
  store i32 -4095, ptr %3, align 4
  store i32 1, ptr %9, align 4
  br label %71

25:                                               ; preds = %19
  %26 = load ptr, ptr %4, align 8, !tbaa !93
  %27 = call ptr @uv__get_nbufs(ptr noundef %26)
  store ptr %27, ptr %8, align 8, !tbaa !84
  %28 = load ptr, ptr %4, align 8, !tbaa !93
  %29 = getelementptr inbounds nuw %struct.uv_fs_s, ptr %28, i32 0, i32 7
  %30 = load ptr, ptr %29, align 8, !tbaa !95
  store ptr %30, ptr %6, align 8, !tbaa !101
  %31 = load ptr, ptr %8, align 8, !tbaa !84
  %32 = load i32, ptr %31, align 4, !tbaa !15
  %33 = icmp ugt i32 %32, 0
  br i1 %33, label %34, label %42

34:                                               ; preds = %25
  %35 = load ptr, ptr %6, align 8, !tbaa !101
  %36 = load ptr, ptr %8, align 8, !tbaa !84
  %37 = load i32, ptr %36, align 4, !tbaa !15
  %38 = sub i32 %37, 1
  %39 = zext i32 %38 to i64
  %40 = getelementptr inbounds nuw ptr, ptr %35, i64 %39
  %41 = load ptr, ptr %40, align 8, !tbaa !104
  call void @free(ptr noundef %41) #13
  br label %42

42:                                               ; preds = %34, %25
  %43 = load ptr, ptr %8, align 8, !tbaa !84
  %44 = load i32, ptr %43, align 4, !tbaa !15
  %45 = load ptr, ptr %4, align 8, !tbaa !93
  %46 = getelementptr inbounds nuw %struct.uv_fs_s, ptr %45, i32 0, i32 6
  %47 = load i64, ptr %46, align 8, !tbaa !103
  %48 = trunc i64 %47 to i32
  %49 = icmp eq i32 %44, %48
  br i1 %49, label %50, label %54

50:                                               ; preds = %42
  %51 = load ptr, ptr %6, align 8, !tbaa !101
  call void @free(ptr noundef %51) #13
  %52 = load ptr, ptr %4, align 8, !tbaa !93
  %53 = getelementptr inbounds nuw %struct.uv_fs_s, ptr %52, i32 0, i32 7
  store ptr null, ptr %53, align 8, !tbaa !95
  store i32 -4095, ptr %3, align 4
  store i32 1, ptr %9, align 4
  br label %71

54:                                               ; preds = %42
  %55 = load ptr, ptr %6, align 8, !tbaa !101
  %56 = load ptr, ptr %8, align 8, !tbaa !84
  %57 = load i32, ptr %56, align 4, !tbaa !15
  %58 = add i32 %57, 1
  store i32 %58, ptr %56, align 4, !tbaa !15
  %59 = zext i32 %57 to i64
  %60 = getelementptr inbounds nuw ptr, ptr %55, i64 %59
  %61 = load ptr, ptr %60, align 8, !tbaa !104
  store ptr %61, ptr %7, align 8, !tbaa !104
  %62 = load ptr, ptr %7, align 8, !tbaa !104
  %63 = getelementptr inbounds nuw %struct.dirent, ptr %62, i32 0, i32 4
  %64 = getelementptr inbounds [256 x i8], ptr %63, i64 0, i64 0
  %65 = load ptr, ptr %5, align 8, !tbaa !107
  %66 = getelementptr inbounds nuw %struct.uv_dirent_s, ptr %65, i32 0, i32 0
  store ptr %64, ptr %66, align 8, !tbaa !109
  %67 = load ptr, ptr %7, align 8, !tbaa !104
  %68 = call i32 @uv__fs_get_dirent_type(ptr noundef %67)
  %69 = load ptr, ptr %5, align 8, !tbaa !107
  %70 = getelementptr inbounds nuw %struct.uv_dirent_s, ptr %69, i32 0, i32 1
  store i32 %68, ptr %70, align 8, !tbaa !111
  store i32 0, ptr %3, align 4
  store i32 1, ptr %9, align 4
  br label %71

71:                                               ; preds = %54, %50, %24, %14
  call void @llvm.lifetime.end.p0(i64 8, ptr %8) #13
  call void @llvm.lifetime.end.p0(i64 8, ptr %7) #13
  call void @llvm.lifetime.end.p0(i64 8, ptr %6) #13
  %72 = load i32, ptr %3, align 4
  ret i32 %72
}